; Function Attrs: mustprogress nofree norecurse nosync nounwind willreturn memory(read, inaccessiblemem: none) uwtable
define hidden noundef zeroext i1 @_ZNK4cvc58internal6String8isNumberEv(ptr nocapture noundef nonnull readonly align 8 dereferenceable(24) %this) local_unnamed_addr #4 align 2 {
entry:
  %0 = load ptr, ptr %this, align 8
  %_M_finish.i.i = getelementptr inbounds i8, ptr %this, i64 8
  %1 = load ptr, ptr %_M_finish.i.i, align 8
  %cmp.i.i = icmp eq ptr %0, %1
  br i1 %cmp.i.i, label %return, label %for.body

for.body:                                         ; preds = %entry, %for.body
  %__begin2.sroa.0.04 = phi ptr [ %incdec.ptr.i, %for.body ], [ %0, %entry ]
  %2 = load i32, ptr %__begin2.sroa.0.04, align 4
  %3 = add i32 %2, -48
  %4 = icmp ult i32 %3, 10
  %incdec.ptr.i = getelementptr inbounds i8, ptr %__begin2.sroa.0.04, i64 4
  %cmp.i.not = icmp ne ptr %incdec.ptr.i, %1
  %or.cond.not = select i1 %4, i1 %cmp.i.not, i1 false
  br i1 %or.cond.not, label %for.body, label %return

return:                                           ; preds = %for.body, %entry
  %retval.0 = phi i1 [ false, %entry ], [ %4, %for.body ]
  ret i1 %retval.0
}